target datalayout = "e-m:e-p270:32:32-p271:32:32-p272:64:64-i64:64-i128:128-f80:128-n8:16:32:64-S128"
target triple = "x86_64-pc-linux-gnu"

%"class.std::vector" = type { %"struct.std::_Vector_base" }
%"struct.std::_Vector_base" = type { %"struct.std::_Vector_base<const Variable *, std::allocator<const Variable *>>::_Vector_impl" }
%"struct.std::_Vector_base<const Variable *, std::allocator<const Variable *>>::_Vector_impl" = type { %"struct.std::_Vector_base<const Variable *, std::allocator<const Variable *>>::_Vector_impl_data" }
%"struct.std::_Vector_base<const Variable *, std::allocator<const Variable *>>::_Vector_impl_data" = type { ptr, ptr, ptr }
%class.FactPointTo = type { %class.Fact.base, ptr, %"class.std::vector" }
%class.Fact.base = type <{ ptr, i32 }>

@_ZN11FactPointTo11garbage_ptrE = dso_local global ptr null, align 8
@_ZN11FactPointToC1EPK8Variable = dso_local unnamed_addr alias void (ptr, ptr), ptr @_ZN11FactPointToC2EPK8Variable
@_ZN11FactPointToD1Ev = dso_local unnamed_addr alias void (ptr), ptr @_ZN11FactPointToD2Ev

; Function Attrs: mustprogress uwtable
define dso_local noundef zeroext i1 @_ZNK11FactPointTo7is_deadEv(ptr noundef nonnull align 8 dereferenceable(48) %0) #6 align 2 {
  %2 = alloca ptr, align 8
  store ptr %0, ptr %2, align 8, !tbaa !26
  %3 = load ptr, ptr %2, align 8
  %4 = getelementptr inbounds nuw %class.FactPointTo, ptr %3, i32 0, i32 2
  %5 = load ptr, ptr @_ZN11FactPointTo11garbage_ptrE, align 8, !tbaa !4
  %6 = call noundef i32 @_Z20find_variable_in_setRKSt6vectorIPK8VariableSaIS2_EES2_(ptr noundef nonnull align 8 dereferenceable(24) %4, ptr noundef %5)
  %7 = icmp ne i32 %6, -1
  ret i1 %7
}

; Function Attrs: mustprogress uwtable
define dso_local noundef zeroext i1 @_ZN11FactPointTo15is_dangling_ptrEPK8VariableRKSt6vectorIPK4FactSaIS6_EE(ptr noundef %0, ptr noundef nonnull align 8 dereferenceable(24) %1) #6 align 2 personality ptr @__gxx_personality_v0 {
  %3 = alloca ptr, align 8
  %4 = alloca ptr, align 8
  %5 = alloca %class.FactPointTo, align 8
  %6 = alloca ptr, align 8
  %7 = alloca ptr, align 8
  %8 = alloca i32, align 4
  store ptr %0, ptr %3, align 8, !tbaa !4
  store ptr %1, ptr %4, align 8, !tbaa !70
  call void @llvm.lifetime.start.p0(i64 48, ptr %5) #3
  %9 = load ptr, ptr %3, align 8, !tbaa !4
  call void @_ZN11FactPointToC1EPK8Variable(ptr noundef nonnull align 8 dereferenceable(48) %5, ptr noundef %9)
  call void @llvm.lifetime.start.p0(i64 8, ptr %6) #3
  %10 = load ptr, ptr %4, align 8, !tbaa !70
  %11 = invoke noundef ptr @_Z17find_related_factRKSt6vectorIPK4FactSaIS2_EES2_(ptr noundef nonnull align 8 dereferenceable(24) %10, ptr noundef %5)
          to label %12 unwind label %27

12:                                               ; preds = %2
  store ptr %11, ptr %6, align 8, !tbaa !26
  %13 = load ptr, ptr %6, align 8, !tbaa !26
  %14 = icmp ne ptr %13, null
  br i1 %14, label %15, label %25

15:                                               ; preds = %12
  %16 = load ptr, ptr %6, align 8, !tbaa !26
  %17 = invoke noundef zeroext i1 @_ZNK11FactPointTo7is_deadEv(ptr noundef nonnull align 8 dereferenceable(48) %16)
          to label %18 unwind label %27

18:                                               ; preds = %15
  br i1 %17, label %19, label %23

19:                                               ; preds = %18
  %20 = invoke noundef i32 @_ZN9CGOptions29dead_pointer_dereference_probEv()
          to label %21 unwind label %27

21:                                               ; preds = %19
  %22 = icmp eq i32 %20, 0
  br label %23

23:                                               ; preds = %21, %18
  %24 = phi i1 [ false, %18 ], [ %22, %21 ]
  br label %25

25:                                               ; preds = %23, %12
  %26 = phi i1 [ false, %12 ], [ %24, %23 ]
  call void @llvm.lifetime.end.p0(i64 8, ptr %6) #3
  call void @_ZN11FactPointToD1Ev(ptr noundef nonnull align 8 dereferenceable(48) %5) #3
  call void @llvm.lifetime.end.p0(i64 48, ptr %5) #3
  ret i1 %26

27:                                               ; preds = %19, %15, %2
  %28 = landingpad { ptr, i32 }
          cleanup
  %29 = extractvalue { ptr, i32 } %28, 0
  store ptr %29, ptr %7, align 8
  %30 = extractvalue { ptr, i32 } %28, 1
  store i32 %30, ptr %8, align 4
  call void @llvm.lifetime.end.p0(i64 8, ptr %6) #3
  call void @_ZN11FactPointToD1Ev(ptr noundef nonnull align 8 dereferenceable(48) %5) #3
  call void @llvm.lifetime.end.p0(i64 48, ptr %5) #3
  br label %31

31:                                               ; preds = %27
  %32 = load ptr, ptr %7, align 8
  %33 = load i32, ptr %8, align 4
  %34 = insertvalue { ptr, i32 } poison, ptr %32, 0
  %35 = insertvalue { ptr, i32 } %34, i32 %33, 1
  resume { ptr, i32 } %35
}