; Function Attrs: mustprogress uwtable
define dso_local noundef zeroext i1 @_ZN11FactPointTo15is_dangling_ptrEPK8VariableRKSt6vectorIPK4FactSaIS6_EE(ptr noundef %0, ptr noundef nonnull align 8 dereferenceable(24) %1) local_unnamed_addr #6 align 2 personality ptr @__gxx_personality_v0 {
  %3 = alloca %class.FactPointTo, align 8
  call void @llvm.lifetime.start.p0(i64 48, ptr nonnull %3) #22
  call void @_ZN4FactC2E13eFactCategory(ptr noundef nonnull align 8 dereferenceable(48) %3, i32 noundef 1)
  store ptr getelementptr inbounds nuw inrange(-16, 152) (i8, ptr @_ZTV11FactPointTo, i64 16), ptr %3, align 8, !tbaa !35
  %4 = getelementptr inbounds nuw i8, ptr %3, i64 16
  store ptr %0, ptr %4, align 8, !tbaa !22
  %5 = getelementptr inbounds nuw i8, ptr %3, i64 24
  call void @llvm.memset.p0.i64(ptr noundef nonnull align 8 dereferenceable(24) %5, i8 0, i64 24, i1 false)
  %6 = invoke noalias noundef nonnull dereferenceable(8) ptr @_Znwm(i64 noundef 8) #24
          to label %_ZN11FactPointToC2EPK8Variable.exit unwind label %_ZNSt6vectorIPK8VariableSaIS2_EED2Ev.exit.i

common.resume:                                    ; preds = %31, %_ZNSt6vectorIPK8VariableSaIS2_EED2Ev.exit.i
  %common.resume.op = phi { ptr, i32 } [ %7, %_ZNSt6vectorIPK8VariableSaIS2_EED2Ev.exit.i ], [ %32, %31 ]
  resume { ptr, i32 } %common.resume.op

_ZNSt6vectorIPK8VariableSaIS2_EED2Ev.exit.i:      ; preds = %2
  %7 = landingpad { ptr, i32 }
          cleanup
  call void @_ZN4FactD2Ev(ptr noundef nonnull align 8 dereferenceable(48) %3) #22
  br label %common.resume

_ZN11FactPointToC2EPK8Variable.exit:              ; preds = %2
  %8 = getelementptr inbounds nuw i8, ptr %3, i64 40
  %9 = getelementptr inbounds nuw i8, ptr %3, i64 32
  %10 = load ptr, ptr @_ZN11FactPointTo11garbage_ptrE, align 8, !tbaa !19
  store ptr %10, ptr %6, align 8, !tbaa !19
  %11 = getelementptr inbounds nuw i8, ptr %6, i64 8
  store ptr %6, ptr %5, align 8, !tbaa !4
  store ptr %11, ptr %9, align 8, !tbaa !18
  store ptr %11, ptr %8, align 8, !tbaa !10
  %12 = invoke noundef ptr @_Z17find_related_factRKSt6vectorIPK4FactSaIS2_EES2_(ptr noundef nonnull align 8 dereferenceable(24) %1, ptr noundef nonnull %3)
          to label %13 unwind label %31

13:                                               ; preds = %_ZN11FactPointToC2EPK8Variable.exit
  %.not = icmp eq ptr %12, null
  br i1 %.not, label %23, label %14

14:                                               ; preds = %13
  %15 = getelementptr inbounds nuw i8, ptr %12, i64 24
  %16 = load ptr, ptr @_ZN11FactPointTo11garbage_ptrE, align 8, !tbaa !19
  %17 = invoke noundef i32 @_Z20find_variable_in_setRKSt6vectorIPK8VariableSaIS2_EES2_(ptr noundef nonnull align 8 dereferenceable(24) %15, ptr noundef %16)
          to label %18 unwind label %31

18:                                               ; preds = %14
  %.not6 = icmp eq i32 %17, -1
  br i1 %.not6, label %23, label %19

19:                                               ; preds = %18
  %20 = invoke noundef i32 @_ZN9CGOptions29dead_pointer_dereference_probEv()
          to label %21 unwind label %31

21:                                               ; preds = %19
  %22 = icmp eq i32 %20, 0
  br label %23

23:                                               ; preds = %18, %21, %13
  %24 = phi i1 [ false, %13 ], [ false, %18 ], [ %22, %21 ]
  store ptr getelementptr inbounds nuw inrange(-16, 152) (i8, ptr @_ZTV11FactPointTo, i64 16), ptr %3, align 8, !tbaa !35
  %25 = load ptr, ptr %5, align 8, !tbaa !4
  %.not.i.i.i.i = icmp eq ptr %25, null
  br i1 %.not.i.i.i.i, label %_ZN11FactPointToD2Ev.exit, label %26

26:                                               ; preds = %23
  %27 = load ptr, ptr %8, align 8, !tbaa !10
  %28 = ptrtoint ptr %27 to i64
  %29 = ptrtoint ptr %25 to i64
  %30 = sub i64 %28, %29
  call void @_ZdlPvm(ptr noundef nonnull %25, i64 noundef %30) #21
  br label %_ZN11FactPointToD2Ev.exit

_ZN11FactPointToD2Ev.exit:                        ; preds = %23, %26
  call void @_ZN4FactD2Ev(ptr noundef nonnull align 8 dereferenceable(48) %3) #22
  call void @llvm.lifetime.end.p0(i64 48, ptr nonnull %3) #22
  ret i1 %24

31:                                               ; preds = %14, %19, %_ZN11FactPointToC2EPK8Variable.exit
  %32 = landingpad { ptr, i32 }
          cleanup
  call void @_ZN11FactPointToD2Ev(ptr noundef nonnull align 8 dereferenceable(48) %3) #22
  call void @llvm.lifetime.end.p0(i64 48, ptr nonnull %3) #22
  br label %common.resume
}